target datalayout = "e-m:e-p270:32:32-p271:32:32-p272:64:64-i64:64-i128:128-f80:128-n8:16:32:64-S128"
target triple = "x86_64-pc-linux-gnu"

%struct.FormData_pg_cast = type { i32, i32, i32, i32, i8, i8 }
%struct.HeapTupleData = type { i32, %struct.ItemPointerData, i32, ptr }
%struct.ItemPointerData = type { %struct.BlockIdData, i16 }
%struct.BlockIdData = type { i16, i16 }
%struct.HeapTupleHeaderData = type { %union.anon, %struct.ItemPointerData, i16, i16, i8, [0 x i8] }
%union.anon = type { %struct.HeapTupleFields }
%struct.HeapTupleFields = type { i32, i32, %union.anon.0 }
%union.anon.0 = type { i32 }

@.str.1 = private unnamed_addr constant [15 x i8] c"parse_coerce.c\00", align 1
@.str.40 = private unnamed_addr constant [29 x i8] c"unrecognized castcontext: %d\00", align 1
@__func__.find_coercion_pathway = private unnamed_addr constant [22 x i8] c"find_coercion_pathway\00", align 1
@.str.41 = private unnamed_addr constant [28 x i8] c"unrecognized castmethod: %d\00", align 1

; Function Attrs: nounwind uwtable
define dso_local signext i8 @TypeCategory(i32 noundef %0) #0 {
  %2 = alloca i32, align 4
  %3 = alloca i8, align 1
  %4 = alloca i8, align 1
  store i32 %0, ptr %2, align 4
  call void @llvm.lifetime.start.p0(i64 1, ptr %3) #6
  call void @llvm.lifetime.start.p0(i64 1, ptr %4) #6
  %5 = load i32, ptr %2, align 4
  call void @get_type_category_preferred(i32 noundef %5, ptr noundef %3, ptr noundef %4)
  %6 = load i8, ptr %3, align 1
  call void @llvm.lifetime.end.p0(i64 1, ptr %4) #6
  call void @llvm.lifetime.end.p0(i64 1, ptr %3) #6
  ret i8 %6
}

; Function Attrs: inlinehint nounwind uwtable
define internal ptr @GETSTRUCT(ptr noundef %0) #3 {
  %2 = alloca ptr, align 8
  store ptr %0, ptr %2, align 8
  %3 = load ptr, ptr %2, align 8
  %4 = getelementptr inbounds nuw %struct.HeapTupleData, ptr %3, i32 0, i32 3
  %5 = load ptr, ptr %4, align 8
  %6 = load ptr, ptr %2, align 8
  %7 = getelementptr inbounds nuw %struct.HeapTupleData, ptr %6, i32 0, i32 3
  %8 = load ptr, ptr %7, align 8
  %9 = getelementptr inbounds nuw %struct.HeapTupleHeaderData, ptr %8, i32 0, i32 4
  %10 = load i8, ptr %9, align 2
  %11 = zext i8 %10 to i32
  %12 = sext i32 %11 to i64
  %13 = getelementptr inbounds i8, ptr %5, i64 %12
  ret ptr %13
}

; Function Attrs: inlinehint nounwind uwtable
define internal i64 @ObjectIdGetDatum(i32 noundef %0) #3 {
  %2 = alloca i32, align 4
  store i32 %0, ptr %2, align 4
  %3 = load i32, ptr %2, align 4
  %4 = zext i32 %3 to i64
  ret i64 %4
}

; Function Attrs: nounwind uwtable
define dso_local i32 @find_coercion_pathway(i32 noundef %0, i32 noundef %1, i32 noundef %2, ptr noundef %3) #0 {
  %5 = alloca i32, align 4
  %6 = alloca i32, align 4
  %7 = alloca i32, align 4
  %8 = alloca i32, align 4
  %9 = alloca ptr, align 8
  %10 = alloca i32, align 4
  %11 = alloca ptr, align 8
  %12 = alloca i32, align 4
  %13 = alloca ptr, align 8
  %14 = alloca i32, align 4
  %15 = alloca i32, align 4
  %16 = alloca i32, align 4
  %17 = alloca i32, align 4
  %18 = alloca i32, align 4
  store i32 %0, ptr %6, align 4
  store i32 %1, ptr %7, align 4
  store i32 %2, ptr %8, align 4
  store ptr %3, ptr %9, align 8
  call void @llvm.lifetime.start.p0(i64 4, ptr %10) #6
  store i32 0, ptr %10, align 4
  call void @llvm.lifetime.start.p0(i64 8, ptr %11) #6
  %19 = load ptr, ptr %9, align 8
  store i32 0, ptr %19, align 4
  %20 = load i32, ptr %7, align 4
  %21 = icmp ne i32 %20, 0
  br i1 %21, label %22, label %25

22:                                               ; preds = %4
  %23 = load i32, ptr %7, align 4
  %24 = call i32 @getBaseType(i32 noundef %23)
  store i32 %24, ptr %7, align 4
  br label %25

25:                                               ; preds = %22, %4
  %26 = load i32, ptr %6, align 4
  %27 = icmp ne i32 %26, 0
  br i1 %27, label %28, label %31

28:                                               ; preds = %25
  %29 = load i32, ptr %6, align 4
  %30 = call i32 @getBaseType(i32 noundef %29)
  store i32 %30, ptr %6, align 4
  br label %31

31:                                               ; preds = %28, %25
  %32 = load i32, ptr %7, align 4
  %33 = load i32, ptr %6, align 4
  %34 = icmp eq i32 %32, %33
  br i1 %34, label %35, label %36

35:                                               ; preds = %31
  store i32 2, ptr %5, align 4
  store i32 1, ptr %12, align 4
  br label %160

36:                                               ; preds = %31
  %37 = load i32, ptr %7, align 4
  %38 = call i64 @ObjectIdGetDatum(i32 noundef %37)
  %39 = load i32, ptr %6, align 4
  %40 = call i64 @ObjectIdGetDatum(i32 noundef %39)
  %41 = call ptr @SearchSysCache2(i32 noundef 12, i64 noundef %38, i64 noundef %40)
  store ptr %41, ptr %11, align 8
  %42 = load ptr, ptr %11, align 8
  %43 = icmp ne ptr %42, null
  br i1 %43, label %44, label %103

44:                                               ; preds = %36
  call void @llvm.lifetime.start.p0(i64 8, ptr %13) #6
  %45 = load ptr, ptr %11, align 8
  %46 = call ptr @GETSTRUCT(ptr noundef %45)
  store ptr %46, ptr %13, align 8
  call void @llvm.lifetime.start.p0(i64 4, ptr %14) #6
  %47 = load ptr, ptr %13, align 8
  %48 = getelementptr inbounds nuw %struct.FormData_pg_cast, ptr %47, i32 0, i32 4
  %49 = load i8, ptr %48, align 4
  %50 = sext i8 %49 to i32
  switch i32 %50, label %54 [
    i32 105, label %51
    i32 97, label %52
    i32 101, label %53
  ]

51:                                               ; preds = %44
  store i32 0, ptr %14, align 4
  br label %69

52:                                               ; preds = %44
  store i32 1, ptr %14, align 4
  br label %69

53:                                               ; preds = %44
  store i32 3, ptr %14, align 4
  br label %69

54:                                               ; preds = %44
  br label %55

55:                                               ; preds = %54
  br i1 true, label %56, label %58

56:                                               ; preds = %55
  %57 = call zeroext i1 @errstart_cold(i32 noundef 21, ptr noundef null) #7
  br i1 %57, label %60, label %66

58:                                               ; preds = %55
  %59 = call zeroext i1 @errstart(i32 noundef 21, ptr noundef null)
  br i1 %59, label %60, label %66

60:                                               ; preds = %58, %56
  %61 = load ptr, ptr %13, align 8
  %62 = getelementptr inbounds nuw %struct.FormData_pg_cast, ptr %61, i32 0, i32 4
  %63 = load i8, ptr %62, align 4
  %64 = sext i8 %63 to i32
  %65 = call i32 (ptr, ...) @errmsg_internal(ptr noundef @.str.40, i32 noundef %64)
  call void @errfinish(ptr noundef @.str.1, i32 noundef 3196, ptr noundef @__func__.find_coercion_pathway)
  br label %66

66:                                               ; preds = %60, %58, %56
  unreachable

67:                                               ; No predecessors!
  br label %68

68:                                               ; preds = %67
  store i32 0, ptr %14, align 4
  br label %69

69:                                               ; preds = %68, %53, %52, %51
  %70 = load i32, ptr %8, align 4
  %71 = load i32, ptr %14, align 4
  %72 = icmp uge i32 %70, %71
  br i1 %72, label %73, label %101

73:                                               ; preds = %69
  %74 = load ptr, ptr %13, align 8
  %75 = getelementptr inbounds nuw %struct.FormData_pg_cast, ptr %74, i32 0, i32 5
  %76 = load i8, ptr %75, align 1
  %77 = sext i8 %76 to i32
  switch i32 %77, label %85 [
    i32 102, label %78
    i32 105, label %83
    i32 98, label %84
  ]

78:                                               ; preds = %73
  store i32 1, ptr %10, align 4
  %79 = load ptr, ptr %13, align 8
  %80 = getelementptr inbounds nuw %struct.FormData_pg_cast, ptr %79, i32 0, i32 3
  %81 = load i32, ptr %80, align 4
  %82 = load ptr, ptr %9, align 8
  store i32 %81, ptr %82, align 4
  br label %100

83:                                               ; preds = %73
  store i32 4, ptr %10, align 4
  br label %100

84:                                               ; preds = %73
  store i32 2, ptr %10, align 4
  br label %100

85:                                               ; preds = %73
  br label %86

86:                                               ; preds = %85
  br i1 true, label %87, label %89

87:                                               ; preds = %86
  %88 = call zeroext i1 @errstart_cold(i32 noundef 21, ptr noundef null) #7
  br i1 %88, label %91, label %97

89:                                               ; preds = %86
  %90 = call zeroext i1 @errstart(i32 noundef 21, ptr noundef null)
  br i1 %90, label %91, label %97

91:                                               ; preds = %89, %87
  %92 = load ptr, ptr %13, align 8
  %93 = getelementptr inbounds nuw %struct.FormData_pg_cast, ptr %92, i32 0, i32 5
  %94 = load i8, ptr %93, align 1
  %95 = sext i8 %94 to i32
  %96 = call i32 (ptr, ...) @errmsg_internal(ptr noundef @.str.41, i32 noundef %95)
  call void @errfinish(ptr noundef @.str.1, i32 noundef 3218, ptr noundef @__func__.find_coercion_pathway)
  br label %97

97:                                               ; preds = %91, %89, %87
  unreachable

98:                                               ; No predecessors!
  br label %99

99:                                               ; preds = %98
  br label %100

100:                                              ; preds = %99, %84, %83, %78
  br label %101

101:                                              ; preds = %100, %69
  %102 = load ptr, ptr %11, align 8
  call void @ReleaseSysCache(ptr noundef %102)
  call void @llvm.lifetime.end.p0(i64 4, ptr %14) #6
  call void @llvm.lifetime.end.p0(i64 8, ptr %13) #6
  br label %151

103:                                              ; preds = %36
  %104 = load i32, ptr %6, align 4
  %105 = icmp ne i32 %104, 30
  br i1 %105, label %106, label %127

106:                                              ; preds = %103
  %107 = load i32, ptr %6, align 4
  %108 = icmp ne i32 %107, 22
  br i1 %108, label %109, label %127

109:                                              ; preds = %106
  call void @llvm.lifetime.start.p0(i64 4, ptr %15) #6
  call void @llvm.lifetime.start.p0(i64 4, ptr %16) #6
  %110 = load i32, ptr %6, align 4
  %111 = call i32 @get_element_type(i32 noundef %110)
  store i32 %111, ptr %15, align 4
  %112 = icmp ne i32 %111, 0
  br i1 %112, label %113, label %126

113:                                              ; preds = %109
  %114 = load i32, ptr %7, align 4
  %115 = call i32 @get_element_type(i32 noundef %114)
  store i32 %115, ptr %16, align 4
  %116 = icmp ne i32 %115, 0
  br i1 %116, label %117, label %126

117:                                              ; preds = %113
  call void @llvm.lifetime.start.p0(i64 4, ptr %17) #6
  call void @llvm.lifetime.start.p0(i64 4, ptr %18) #6
  %118 = load i32, ptr %15, align 4
  %119 = load i32, ptr %16, align 4
  %120 = load i32, ptr %8, align 4
  %121 = call i32 @find_coercion_pathway(i32 noundef %118, i32 noundef %119, i32 noundef %120, ptr noundef %18)
  store i32 %121, ptr %17, align 4
  %122 = load i32, ptr %17, align 4
  %123 = icmp ne i32 %122, 0
  br i1 %123, label %124, label %125

124:                                              ; preds = %117
  store i32 3, ptr %10, align 4
  br label %125

125:                                              ; preds = %124, %117
  call void @llvm.lifetime.end.p0(i64 4, ptr %18) #6
  call void @llvm.lifetime.end.p0(i64 4, ptr %17) #6
  br label %126

126:                                              ; preds = %125, %113, %109
  call void @llvm.lifetime.end.p0(i64 4, ptr %16) #6
  call void @llvm.lifetime.end.p0(i64 4, ptr %15) #6
  br label %127

127:                                              ; preds = %126, %106, %103
  %128 = load i32, ptr %10, align 4
  %129 = icmp eq i32 %128, 0
  br i1 %129, label %130, label %150

130:                                              ; preds = %127
  %131 = load i32, ptr %8, align 4
  %132 = icmp uge i32 %131, 1
  br i1 %132, label %133, label %139

133:                                              ; preds = %130
  %134 = load i32, ptr %6, align 4
  %135 = call signext i8 @TypeCategory(i32 noundef %134)
  %136 = sext i8 %135 to i32
  %137 = icmp eq i32 %136, 83
  br i1 %137, label %138, label %139

138:                                              ; preds = %133
  store i32 4, ptr %10, align 4
  br label %149

139:                                              ; preds = %133, %130
  %140 = load i32, ptr %8, align 4
  %141 = icmp uge i32 %140, 3
  br i1 %141, label %142, label %148

142:                                              ; preds = %139
  %143 = load i32, ptr %7, align 4
  %144 = call signext i8 @TypeCategory(i32 noundef %143)
  %145 = sext i8 %144 to i32
  %146 = icmp eq i32 %145, 83
  br i1 %146, label %147, label %148

147:                                              ; preds = %142
  store i32 4, ptr %10, align 4
  br label %148

148:                                              ; preds = %147, %142, %139
  br label %149

149:                                              ; preds = %148, %138
  br label %150

150:                                              ; preds = %149, %127
  br label %151

151:                                              ; preds = %150, %101
  %152 = load i32, ptr %10, align 4
  %153 = icmp eq i32 %152, 0
  br i1 %153, label %154, label %158

154:                                              ; preds = %151
  %155 = load i32, ptr %8, align 4
  %156 = icmp eq i32 %155, 2
  br i1 %156, label %157, label %158

157:                                              ; preds = %154
  store i32 4, ptr %10, align 4
  br label %158

158:                                              ; preds = %157, %154, %151
  %159 = load i32, ptr %10, align 4
  store i32 %159, ptr %5, align 4
  store i32 1, ptr %12, align 4
  br label %160

160:                                              ; preds = %158, %35
  call void @llvm.lifetime.end.p0(i64 8, ptr %11) #6
  call void @llvm.lifetime.end.p0(i64 4, ptr %10) #6
  %161 = load i32, ptr %5, align 4
  ret i32 %161
}