; Function Attrs: nounwind uwtable
define dso_local range(i32 0, 5) i32 @find_coercion_pathway(i32 noundef %0, i32 noundef %1, i32 noundef %2, ptr noundef writeonly captures(none) initializes((0, 4)) %3) local_unnamed_addr #0 {
  %5 = alloca i8, align 1
  %6 = alloca i8, align 1
  %7 = alloca i8, align 1
  %8 = alloca i8, align 1
  %9 = alloca i32, align 4
  store i32 0, ptr %3, align 4
  %.not = icmp eq i32 %1, 0
  br i1 %.not, label %12, label %10

10:                                               ; preds = %4
  %11 = tail call i32 @getBaseType(i32 noundef %1) #5
  br label %12

12:                                               ; preds = %10, %4
  %.040 = phi i32 [ %11, %10 ], [ 0, %4 ]
  %.not50 = icmp eq i32 %0, 0
  br i1 %.not50, label %15, label %13

13:                                               ; preds = %12
  %14 = tail call i32 @getBaseType(i32 noundef %0) #5
  br label %15

15:                                               ; preds = %13, %12
  %.039 = phi i32 [ %14, %13 ], [ 0, %12 ]
  %16 = icmp eq i32 %.040, %.039
  br i1 %16, label %66, label %17

17:                                               ; preds = %15
  %18 = zext i32 %.040 to i64
  %19 = zext i32 %.039 to i64
  %20 = tail call ptr @SearchSysCache2(i32 noundef 12, i64 noundef %18, i64 noundef %19) #5
  %.not51 = icmp eq ptr %20, null
  br i1 %.not51, label %48, label %21

21:                                               ; preds = %17
  %22 = getelementptr i8, ptr %20, i64 16
  %.val = load ptr, ptr %22, align 8
  %23 = getelementptr inbounds nuw i8, ptr %.val, i64 22
  %24 = load i8, ptr %23, align 2
  %25 = zext i8 %24 to i64
  %26 = getelementptr inbounds nuw i8, ptr %.val, i64 %25
  %27 = getelementptr inbounds nuw i8, ptr %26, i64 16
  %28 = load i8, ptr %27, align 4
  switch i8 %28, label %30 [
    i8 105, label %.thread
    i8 97, label %35
    i8 101, label %29
  ]

29:                                               ; preds = %21
  br label %35

30:                                               ; preds = %21
  %31 = tail call zeroext i1 @errstart_cold(i32 noundef 21, ptr noundef null) #6
  tail call void @llvm.assume(i1 %31)
  %32 = load i8, ptr %27, align 4
  %33 = sext i8 %32 to i32
  %34 = tail call i32 (ptr, ...) @errmsg_internal(ptr noundef nonnull @.str.40, i32 noundef %33) #5
  tail call void @errfinish(ptr noundef nonnull @.str.1, i32 noundef 3196, ptr noundef nonnull @__func__.find_coercion_pathway) #5
  unreachable

35:                                               ; preds = %21, %29
  %.041 = phi i32 [ 3, %29 ], [ 1, %21 ]
  %.not56 = icmp ult i32 %2, %.041
  br i1 %.not56, label %47, label %.thread

.thread:                                          ; preds = %21, %35
  %36 = getelementptr inbounds nuw i8, ptr %26, i64 17
  %37 = load i8, ptr %36, align 1
  switch i8 %37, label %42 [
    i8 102, label %38
    i8 105, label %47
    i8 98, label %41
  ]

38:                                               ; preds = %.thread
  %39 = getelementptr inbounds nuw i8, ptr %26, i64 12
  %40 = load i32, ptr %39, align 4
  store i32 %40, ptr %3, align 4
  br label %47

41:                                               ; preds = %.thread
  br label %47

42:                                               ; preds = %.thread
  %43 = tail call zeroext i1 @errstart_cold(i32 noundef 21, ptr noundef null) #6
  tail call void @llvm.assume(i1 %43)
  %44 = load i8, ptr %36, align 1
  %45 = sext i8 %44 to i32
  %46 = tail call i32 (ptr, ...) @errmsg_internal(ptr noundef nonnull @.str.41, i32 noundef %45) #5
  tail call void @errfinish(ptr noundef nonnull @.str.1, i32 noundef 3218, ptr noundef nonnull @__func__.find_coercion_pathway) #5
  unreachable

47:                                               ; preds = %.thread, %38, %41, %35
  %.042 = phi i32 [ 2, %41 ], [ 1, %38 ], [ 0, %35 ], [ 4, %.thread ]
  tail call void @ReleaseSysCache(ptr noundef nonnull %20) #5
  br label %.thread62

48:                                               ; preds = %17
  %49 = and i32 %.039, -9
  %or.cond.not = icmp eq i32 %49, 22
  br i1 %or.cond.not, label %select.unfold, label %50

50:                                               ; preds = %48
  %51 = tail call i32 @get_element_type(i32 noundef %.039) #5
  %.not52 = icmp eq i32 %51, 0
  br i1 %.not52, label %select.unfold, label %52

52:                                               ; preds = %50
  %53 = tail call i32 @get_element_type(i32 noundef %.040) #5
  %.not53 = icmp eq i32 %53, 0
  br i1 %.not53, label %select.unfold, label %54

54:                                               ; preds = %52
  call void @llvm.lifetime.start.p0(i64 4, ptr nonnull %9) #5
  %55 = call i32 @find_coercion_pathway(i32 noundef %51, i32 noundef %53, i32 noundef %2, ptr noundef nonnull %9)
  %.not54 = icmp eq i32 %55, 0
  call void @llvm.lifetime.end.p0(i64 4, ptr nonnull %9) #5
  br i1 %.not54, label %select.unfold, label %.thread62

select.unfold:                                    ; preds = %54, %48, %52, %50
  %.not55 = icmp eq i32 %2, 0
  br i1 %.not55, label %.thread62, label %56

56:                                               ; preds = %select.unfold
  call void @llvm.lifetime.start.p0(i64 1, ptr nonnull %7) #5
  call void @llvm.lifetime.start.p0(i64 1, ptr nonnull %8) #5
  call void @get_type_category_preferred(i32 noundef %.039, ptr noundef nonnull %7, ptr noundef nonnull %8) #5
  %57 = load i8, ptr %7, align 1
  call void @llvm.lifetime.end.p0(i64 1, ptr nonnull %8) #5
  call void @llvm.lifetime.end.p0(i64 1, ptr nonnull %7) #5
  %58 = icmp eq i8 %57, 83
  br i1 %58, label %.thread62, label %59

59:                                               ; preds = %56
  %60 = icmp ugt i32 %2, 2
  br i1 %60, label %61, label %.thread62

61:                                               ; preds = %59
  call void @llvm.lifetime.start.p0(i64 1, ptr nonnull %5) #5
  call void @llvm.lifetime.start.p0(i64 1, ptr nonnull %6) #5
  call void @get_type_category_preferred(i32 noundef %.040, ptr noundef nonnull %5, ptr noundef nonnull %6) #5
  %62 = load i8, ptr %5, align 1
  call void @llvm.lifetime.end.p0(i64 1, ptr nonnull %6) #5
  call void @llvm.lifetime.end.p0(i64 1, ptr nonnull %5) #5
  %63 = icmp eq i8 %62, 83
  %spec.select57 = select i1 %63, i32 4, i32 0
  br label %.thread62

.thread62:                                        ; preds = %select.unfold, %54, %61, %56, %59, %47
  %.1 = phi i32 [ %.042, %47 ], [ 0, %59 ], [ 4, %56 ], [ %spec.select57, %61 ], [ 3, %54 ], [ 0, %select.unfold ]
  %64 = icmp eq i32 %.1, 0
  %65 = icmp eq i32 %2, 2
  %or.cond3 = and i1 %65, %64
  %spec.store.select = select i1 %or.cond3, i32 4, i32 %.1
  br label %66

66:                                               ; preds = %15, %.thread62
  %.0 = phi i32 [ %spec.store.select, %.thread62 ], [ 2, %15 ]
  ret i32 %.0
}